target datalayout = "e-m:e-p270:32:32-p271:32:32-p272:64:64-i64:64-i128:128-f80:128-n8:16:32:64-S128"
target triple = "x86_64-pc-linux-gnu"

@.str.13 = private unnamed_addr constant [13 x i8] c"out of range\00", align 1

; Function Attrs: nounwind uwtable
define internal i32 @tcreate(ptr noundef %0) #0 {
  %2 = alloca ptr, align 8
  %3 = alloca i64, align 8
  %4 = alloca i64, align 8
  store ptr %0, ptr %2, align 8, !tbaa !4
  call void @llvm.lifetime.start.p0(i64 8, ptr %3) #4
  %5 = load ptr, ptr %2, align 8, !tbaa !4
  %6 = call i64 @luaL_checkinteger(ptr noundef %5, i32 noundef 1)
  store i64 %6, ptr %3, align 8, !tbaa !9
  call void @llvm.lifetime.start.p0(i64 8, ptr %4) #4
  %7 = load ptr, ptr %2, align 8, !tbaa !4
  %8 = call i64 @luaL_optinteger(ptr noundef %7, i32 noundef 2, i64 noundef 0)
  store i64 %8, ptr %4, align 8, !tbaa !9
  %9 = load i64, ptr %3, align 8, !tbaa !9
  %10 = icmp ule i64 %9, 2147483647
  %11 = zext i1 %10 to i32
  %12 = icmp ne i32 %11, 0
  %13 = zext i1 %12 to i32
  %14 = sext i32 %13 to i64
  %15 = call i64 @llvm.expect.i64(i64 %14, i64 1)
  %16 = icmp ne i64 %15, 0
  br i1 %16, label %20, label %17

17:                                               ; preds = %1
  %18 = load ptr, ptr %2, align 8, !tbaa !4
  %19 = call i32 @luaL_argerror(ptr noundef %18, i32 noundef 1, ptr noundef @.str.13)
  br label %20

20:                                               ; preds = %17, %1
  %21 = load i64, ptr %4, align 8, !tbaa !9
  %22 = icmp ule i64 %21, 2147483647
  %23 = zext i1 %22 to i32
  %24 = icmp ne i32 %23, 0
  %25 = zext i1 %24 to i32
  %26 = sext i32 %25 to i64
  %27 = call i64 @llvm.expect.i64(i64 %26, i64 1)
  %28 = icmp ne i64 %27, 0
  br i1 %28, label %32, label %29

29:                                               ; preds = %20
  %30 = load ptr, ptr %2, align 8, !tbaa !4
  %31 = call i32 @luaL_argerror(ptr noundef %30, i32 noundef 2, ptr noundef @.str.13)
  br label %32

32:                                               ; preds = %29, %20
  %33 = load ptr, ptr %2, align 8, !tbaa !4
  %34 = load i64, ptr %3, align 8, !tbaa !9
  %35 = trunc i64 %34 to i32
  %36 = load i64, ptr %4, align 8, !tbaa !9
  %37 = trunc i64 %36 to i32
  call void @lua_createtable(ptr noundef %33, i32 noundef %35, i32 noundef %37)
  call void @llvm.lifetime.end.p0(i64 8, ptr %4) #4
  call void @llvm.lifetime.end.p0(i64 8, ptr %3) #4
  ret i32 1
}