; Function Attrs: nounwind uwtable
define internal noundef i32 @tcreate(ptr noundef %0) #0 {
  %2 = tail call i64 @luaL_checkinteger(ptr noundef %0, i32 noundef 1) #3
  %3 = tail call i64 @luaL_optinteger(ptr noundef %0, i32 noundef 2, i64 noundef 0) #3
  %4 = icmp ult i64 %2, 2147483648
  br i1 %4, label %7, label %5, !prof !9

5:                                                ; preds = %1
  %6 = tail call i32 @luaL_argerror(ptr noundef %0, i32 noundef 1, ptr noundef nonnull @.str.13) #3
  br label %7

7:                                                ; preds = %5, %1
  %8 = icmp ult i64 %3, 2147483648
  br i1 %8, label %11, label %9, !prof !9

9:                                                ; preds = %7
  %10 = tail call i32 @luaL_argerror(ptr noundef %0, i32 noundef 2, ptr noundef nonnull @.str.13) #3
  br label %11

11:                                               ; preds = %9, %7
  %12 = trunc i64 %2 to i32
  %13 = trunc i64 %3 to i32
  tail call void @lua_createtable(ptr noundef %0, i32 noundef %12, i32 noundef %13) #3
  ret i32 1
}